target datalayout = "e-m:e-p270:32:32-p271:32:32-p272:64:64-i64:64-i128:128-f80:128-n8:16:32:64-S128"
target triple = "x86_64-unknown-linux-gnu"

%"class.icu_75::numparse::impl::ParsedNumber" = type { %"class.icu_75::number::impl::DecimalQuantity", i32, i32, %"class.icu_75::UnicodeString", %"class.icu_75::UnicodeString", [4 x i16] }
%"class.icu_75::number::impl::DecimalQuantity" = type <{ %"class.icu_75::IFixedDecimal", i8, [3 x i8], i32, i32, i8, i8, [2 x i8], double, i32, i32, i32, i32, %union.anon, i8, i8, [6 x i8] }>
%"class.icu_75::IFixedDecimal" = type { ptr }
%union.anon = type { %struct.anon }
%struct.anon = type { ptr, i32 }
%"class.icu_75::UnicodeString" = type { %"class.icu_75::Replaceable", %"union.icu_75::UnicodeString::StackBufferOrFields" }
%"class.icu_75::Replaceable" = type { %"class.icu_75::UObject" }
%"class.icu_75::UObject" = type { ptr }
%"union.icu_75::UnicodeString::StackBufferOrFields" = type { %struct.anon.1, [32 x i8] }
%struct.anon.1 = type { i16, i32, i32, ptr }

; Function Attrs: mustprogress uwtable
define void @_ZN6icu_758numparse4impl12ParsedNumber5clearEv(ptr noundef nonnull align 8 dereferenceable(216) %this) #0 align 2 {
entry:
  %this.addr = alloca ptr, align 8
  store ptr %this, ptr %this.addr, align 8
  %this1 = load ptr, ptr %this.addr, align 8
  %quantity = getelementptr inbounds %"class.icu_75::numparse::impl::ParsedNumber", ptr %this1, i32 0, i32 0
  %bogus = getelementptr inbounds %"class.icu_75::number::impl::DecimalQuantity", ptr %quantity, i32 0, i32 1
  store i8 1, ptr %bogus, align 8
  %charEnd = getelementptr inbounds %"class.icu_75::numparse::impl::ParsedNumber", ptr %this1, i32 0, i32 1
  store i32 0, ptr %charEnd, align 8
  %flags = getelementptr inbounds %"class.icu_75::numparse::impl::ParsedNumber", ptr %this1, i32 0, i32 2
  store i32 0, ptr %flags, align 4
  %prefix = getelementptr inbounds %"class.icu_75::numparse::impl::ParsedNumber", ptr %this1, i32 0, i32 3
  call void @_ZN6icu_7513UnicodeString10setToBogusEv(ptr noundef nonnull align 8 dereferenceable(64) %prefix)
  %suffix = getelementptr inbounds %"class.icu_75::numparse::impl::ParsedNumber", ptr %this1, i32 0, i32 4
  call void @_ZN6icu_7513UnicodeString10setToBogusEv(ptr noundef nonnull align 8 dereferenceable(64) %suffix)
  %currencyCode = getelementptr inbounds %"class.icu_75::numparse::impl::ParsedNumber", ptr %this1, i32 0, i32 5
  %arrayidx = getelementptr inbounds [4 x i16], ptr %currencyCode, i64 0, i64 0
  store i16 0, ptr %arrayidx, align 8
  ret void
}