; Function Attrs: mustprogress uwtable
define void @_ZN6icu_758numparse4impl12ParsedNumber5clearEv(ptr noundef nonnull align 8 dereferenceable(216) %this) local_unnamed_addr #0 align 2 {
entry:
  %bogus = getelementptr inbounds i8, ptr %this, i64 8
  store i8 1, ptr %bogus, align 8
  %charEnd = getelementptr inbounds i8, ptr %this, i64 72
  store i32 0, ptr %charEnd, align 8
  %flags = getelementptr inbounds i8, ptr %this, i64 76
  store i32 0, ptr %flags, align 4
  %prefix = getelementptr inbounds i8, ptr %this, i64 80
  tail call void @_ZN6icu_7513UnicodeString10setToBogusEv(ptr noundef nonnull align 8 dereferenceable(64) %prefix)
  %suffix = getelementptr inbounds i8, ptr %this, i64 144
  tail call void @_ZN6icu_7513UnicodeString10setToBogusEv(ptr noundef nonnull align 8 dereferenceable(64) %suffix)
  %currencyCode = getelementptr inbounds i8, ptr %this, i64 208
  store i16 0, ptr %currencyCode, align 8
  ret void
}